; ModuleID = '36/276.c'
source_filename = "36/276.c"
target datalayout = "e-m:e-p270:32:32-p271:32:32-p272:64:64-i64:64-f80:128-n8:16:32:64-S128"
target triple = "x86_64-pc-linux-gnu"

@.str = private unnamed_addr constant [4 x i8] c"NO\0A\00", align 1
@.str.1 = private unnamed_addr constant [5 x i8] c"YES\0A\00", align 1

; Function Attrs: noinline nounwind uwtable
define dso_local i32 @main() #0 {
  %1 = alloca i32, align 4
  %2 = alloca [200 x i8], align 16
  %3 = alloca [100 x i8], align 16
  %4 = alloca [100 x i8], align 16
  %5 = alloca i32, align 4
  %6 = alloca i32, align 4
  %7 = alloca i32, align 4
  %8 = alloca i32, align 4
  %9 = alloca i32, align 4
  %10 = alloca i32, align 4
  %11 = alloca i32, align 4
  store i32 0, i32* %1, align 4
  %12 = bitcast [200 x i8]* %2 to i8*
  call void @llvm.memset.p0i8.i64(i8* align 16 %12, i8 0, i64 200, i1 false)
  %13 = bitcast [100 x i8]* %3 to i8*
  call void @llvm.memset.p0i8.i64(i8* align 16 %13, i8 0, i64 100, i1 false)
  %14 = bitcast [100 x i8]* %4 to i8*
  call void @llvm.memset.p0i8.i64(i8* align 16 %14, i8 0, i64 100, i1 false)
  store i32 0, i32* %8, align 4
  store i32 0, i32* %9, align 4
  %15 = getelementptr inbounds [200 x i8], [200 x i8]* %2, i64 0, i64 0
  %16 = call i32 (i8*, ...) bitcast (i32 (...)* @gets to i32 (i8*, ...)*)(i8* %15)
  store i32 0, i32* %5, align 4
  br label %17

17:                                               ; preds = %37, %0
  %18 = load i32, i32* %5, align 4
  %19 = icmp slt i32 %18, 100
  br i1 %19, label %20, label %40

20:                                               ; preds = %17
  %21 = load i32, i32* %5, align 4
  %22 = sext i32 %21 to i64
  %23 = getelementptr inbounds [200 x i8], [200 x i8]* %2, i64 0, i64 %22
  %24 = load i8, i8* %23, align 1
  %25 = sext i8 %24 to i32
  %26 = icmp eq i32 %25, 32
  br i1 %26, label %27, label %28

27:                                               ; preds = %20
  br label %40

28:                                               ; preds = %20
  %29 = load i32, i32* %5, align 4
  %30 = sext i32 %29 to i64
  %31 = getelementptr inbounds [200 x i8], [200 x i8]* %2, i64 0, i64 %30
  %32 = load i8, i8* %31, align 1
  %33 = load i32, i32* %5, align 4
  %34 = sext i32 %33 to i64
  %35 = getelementptr inbounds [100 x i8], [100 x i8]* %3, i64 0, i64 %34
  store i8 %32, i8* %35, align 1
  br label %36

36:                                               ; preds = %28
  br label %37

37:                                               ; preds = %36
  %38 = load i32, i32* %5, align 4
  %39 = add nsw i32 %38, 1
  store i32 %39, i32* %5, align 4
  br label %17

40:                                               ; preds = %27, %17
  store i32 0, i32* %6, align 4
  br label %41

41:                                               ; preds = %55, %40
  %42 = load i32, i32* %6, align 4
  %43 = icmp slt i32 %42, 100
  br i1 %43, label %44, label %58

44:                                               ; preds = %41
  %45 = load i32, i32* %5, align 4
  %46 = add nsw i32 %45, 1
  %47 = load i32, i32* %6, align 4
  %48 = add nsw i32 %46, %47
  %49 = sext i32 %48 to i64
  %50 = getelementptr inbounds [200 x i8], [200 x i8]* %2, i64 0, i64 %49
  %51 = load i8, i8* %50, align 1
  %52 = load i32, i32* %6, align 4
  %53 = sext i32 %52 to i64
  %54 = getelementptr inbounds [100 x i8], [100 x i8]* %4, i64 0, i64 %53
  store i8 %51, i8* %54, align 1
  br label %55

55:                                               ; preds = %44
  %56 = load i32, i32* %6, align 4
  %57 = add nsw i32 %56, 1
  store i32 %57, i32* %6, align 4
  br label %41

58:                                               ; preds = %41
  %59 = getelementptr inbounds [100 x i8], [100 x i8]* %3, i64 0, i64 0
  %60 = call i64 @strlen(i8* %59) #4
  %61 = trunc i64 %60 to i32
  store i32 %61, i32* %10, align 4
  %62 = getelementptr inbounds [100 x i8], [100 x i8]* %4, i64 0, i64 0
  %63 = call i64 @strlen(i8* %62) #4
  %64 = trunc i64 %63 to i32
  store i32 %64, i32* %11, align 4
  %65 = load i32, i32* %10, align 4
  %66 = load i32, i32* %11, align 4
  %67 = icmp ne i32 %65, %66
  br i1 %67, label %68, label %70

68:                                               ; preds = %58
  %69 = call i32 (i8*, ...) @printf(i8* getelementptr inbounds ([4 x i8], [4 x i8]* @.str, i64 0, i64 0))
  br label %118

70:                                               ; preds = %58
  store i32 0, i32* %5, align 4
  br label %71

71:                                               ; preds = %108, %70
  %72 = load i32, i32* %5, align 4
  %73 = load i32, i32* %10, align 4
  %74 = icmp slt i32 %72, %73
  br i1 %74, label %75, label %111

75:                                               ; preds = %71
  store i32 0, i32* %8, align 4
  store i32 0, i32* %6, align 4
  br label %76

76:                                               ; preds = %99, %75
  %77 = load i32, i32* %6, align 4
  %78 = load i32, i32* %11, align 4
  %79 = icmp slt i32 %77, %78
  br i1 %79, label %80, label %102

80:                                               ; preds = %76
  %81 = load i32, i32* %5, align 4
  %82 = sext i32 %81 to i64
  %83 = getelementptr inbounds [100 x i8], [100 x i8]* %3, i64 0, i64 %82
  %84 = load i8, i8* %83, align 1
  %85 = sext i8 %84 to i32
  %86 = load i32, i32* %6, align 4
  %87 = sext i32 %86 to i64
  %88 = getelementptr inbounds [100 x i8], [100 x i8]* %4, i64 0, i64 %87
  %89 = load i8, i8* %88, align 1
  %90 = sext i8 %89 to i32
  %91 = icmp eq i32 %85, %90
  br i1 %91, label %92, label %98

92:                                               ; preds = %80
  %93 = load i32, i32* %8, align 4
  %94 = add nsw i32 %93, 1
  store i32 %94, i32* %8, align 4
  %95 = load i32, i32* %6, align 4
  %96 = sext i32 %95 to i64
  %97 = getelementptr inbounds [100 x i8], [100 x i8]* %4, i64 0, i64 %96
  store i8 32, i8* %97, align 1
  br label %102

98:                                               ; preds = %80
  br label %99

99:                                               ; preds = %98
  %100 = load i32, i32* %6, align 4
  %101 = add nsw i32 %100, 1
  store i32 %101, i32* %6, align 4
  br label %76

102:                                              ; preds = %92, %76
  %103 = load i32, i32* %8, align 4
  %104 = icmp eq i32 %103, 0
  br i1 %104, label %105, label %107

105:                                              ; preds = %102
  %106 = call i32 (i8*, ...) @printf(i8* getelementptr inbounds ([4 x i8], [4 x i8]* @.str, i64 0, i64 0))
  br label %118

107:                                              ; preds = %102
  br label %108

108:                                              ; preds = %107
  %109 = load i32, i32* %5, align 4
  %110 = add nsw i32 %109, 1
  store i32 %110, i32* %5, align 4
  br label %71

111:                                              ; preds = %71
  %112 = load i32, i32* %5, align 4
  %113 = load i32, i32* %10, align 4
  %114 = icmp eq i32 %112, %113
  br i1 %114, label %115, label %117

115:                                              ; preds = %111
  %116 = call i32 (i8*, ...) @printf(i8* getelementptr inbounds ([5 x i8], [5 x i8]* @.str.1, i64 0, i64 0))
  br label %117

117:                                              ; preds = %115, %111
  br label %118

118:                                              ; preds = %117, %105, %68
  %119 = load i32, i32* %1, align 4
  ret i32 %119
}

; Function Attrs: argmemonly nounwind willreturn
declare void @llvm.memset.p0i8.i64(i8* nocapture writeonly, i8, i64, i1 immarg) #1

declare dso_local i32 @gets(...) #2

; Function Attrs: nounwind readonly
declare dso_local i64 @strlen(i8*) #3

declare dso_local i32 @printf(i8*, ...) #2


!llvm.module.flags = !{!0}
!llvm.ident = !{!1}

!0 = !{i32 1, !"wchar_size", i32 4}
!1 = !{!"clang version 10.0.0-4ubuntu1 "}
